; Function Attrs: mustprogress uwtable
define internal fastcc void @_ZN7Imf_3_212_GLOBAL__N_110checkErrorERSo(ptr noundef nonnull align 8 dereferenceable(8) %os) unnamed_addr #3 personality ptr @__gxx_personality_v0 {
entry:
  %vtable = load ptr, ptr %os, align 8
  %vbase.offset.ptr = getelementptr i8, ptr %vtable, i64 -24
  %vbase.offset = load i64, ptr %vbase.offset.ptr, align 8
  %add.ptr = getelementptr inbounds i8, ptr %os, i64 %vbase.offset
  %call = tail call noundef zeroext i1 @_ZNKSt9basic_iosIcSt11char_traitsIcEEntEv(ptr noundef nonnull align 8 dereferenceable(264) %add.ptr)
  br i1 %call, label %if.then, label %if.end3

if.then:                                          ; preds = %entry
  %call1 = tail call ptr @__errno_location() #13
  %0 = load i32, ptr %call1, align 4
  %tobool.not = icmp eq i32 %0, 0
  br i1 %tobool.not, label %if.end, label %if.then2

if.then2:                                         ; preds = %if.then
  tail call void @_ZN7Iex_3_213throwErrnoExcEv()
  br label %if.end

if.end:                                           ; preds = %if.then2, %if.then
  %exception = tail call ptr @__cxa_allocate_exception(i64 72) #11
  invoke void @_ZN7Iex_3_28ErrnoExcC1EPKc(ptr noundef nonnull align 8 dereferenceable(72) %exception, ptr noundef nonnull @.str.5)
          to label %invoke.cont unwind label %lpad

invoke.cont:                                      ; preds = %if.end
  tail call void @__cxa_throw(ptr nonnull %exception, ptr nonnull @_ZTIN7Iex_3_28ErrnoExcE, ptr nonnull @_ZN7Iex_3_28ErrnoExcD1Ev) #12
  unreachable

lpad:                                             ; preds = %if.end
  %1 = landingpad { ptr, i32 }
          cleanup
  tail call void @__cxa_free_exception(ptr %exception) #11
  resume { ptr, i32 } %1

if.end3:                                          ; preds = %entry
  ret void
}